(lp0
(dp1
S'contributors'
p2
NsS'truncated'
p3
I00
sS'text'
p4
S'#flydubai #flydubaibusiness #novyvideoklip #happy #thomaspuskailer #dubai #emirates #liveforthemoment #musicvideo... http://t.co/x6y6hStVjb'
p5
sS'in_reply_to_status_id'
p6
NsS'id'
p7
I612201657351409664
sS'favorite_count'
p8
I0
sS'source'
p9
S'<a href="http://www.facebook.com/twitter" rel="nofollow">Facebook</a>'
p10
sS'retweeted'
p11
I00
sS'coordinates'
p12
NsS'timestamp_ms'
p13
S'1434795223926'
p14
sS'entities'
p15
(dp16
S'user_mentions'
p17
(lp18
sS'symbols'
p19
(lp20
sS'trends'
p21
(lp22
sS'hashtags'
p23
(lp24
(dp25
S'indices'
p26
(lp27
I0
aI9
asg4
S'flydubai'
p28
sa(dp29
g26
(lp30
I10
aI27
asg4
S'flydubaibusiness'
p31
sa(dp32
g26
(lp33
I28
aI42
asg4
S'novyvideoklip'
p34
sa(dp35
g26
(lp36
I43
aI49
asg4
S'happy'
p37
sa(dp38
g26
(lp39
I50
aI66
asg4
S'thomaspuskailer'
p40
sa(dp41
g26
(lp42
I67
aI73
asg4
S'dubai'
p43
sa(dp44
g26
(lp45
I74
aI83
asg4
S'emirates'
p46
sa(dp47
g26
(lp48
I84
aI101
asg4
S'liveforthemoment'
p49
sa(dp50
g26
(lp51
I102
aI113
asg4
S'musicvideo'
p52
sasS'urls'
p53
(lp54
(dp55
S'url'
p56
S'http://t.co/x6y6hStVjb'
p57
sg26
(lp58
I117
aI139
asS'expanded_url'
p59
S'http://fb.me/7mEvID43x'
p60
sS'display_url'
p61
S'fb.me/7mEvID43x'
p62
sassS'in_reply_to_screen_name'
p63
NsS'id_str'
p64
S'612201657351409664'
p65
sS'retweet_count'
p66
I0
sS'in_reply_to_user_id'
p67
NsS'favorited'
p68
I00
sS'user'
p69
(dp70
S'follow_request_sent'
p71
NsS'profile_use_background_image'
p72
I01
sS'default_profile_image'
p73
I00
sg7
I346734262
sS'verified'
p74
I00
sS'profile_image_url_https'
p75
S'https://pbs.twimg.com/profile_images/419619234143272960/EUAXtX9-_normal.jpeg'
p76
sS'profile_sidebar_fill_color'
p77
S'DDEEF6'
p78
sS'profile_text_color'
p79
S'333333'
p80
sS'followers_count'
p81
I138
sS'profile_sidebar_border_color'
p82
S'C0DEED'
p83
sg64
S'346734262'
p84
sS'profile_background_color'
p85
S'C0DEED'
p86
sS'listed_count'
p87
I0
sS'profile_background_image_url_https'
p88
S'https://abs.twimg.com/images/themes/theme1/bg.png'
p89
sS'utc_offset'
p90
I7200
sS'statuses_count'
p91
I3591
sS'description'
p92
NsS'friends_count'
p93
I12
sS'location'
p94
S'Slovakia, Bratislava'
p95
sS'profile_link_color'
p96
S'0084B4'
p97
sS'profile_image_url'
p98
S'http://pbs.twimg.com/profile_images/419619234143272960/EUAXtX9-_normal.jpeg'
p99
sS'following'
p100
NsS'geo_enabled'
p101
I00
sS'profile_background_image_url'
p102
S'http://abs.twimg.com/images/themes/theme1/bg.png'
p103
sS'name'
p104
S'Thomas Puskailer'
p105
sS'lang'
p106
S'en'
p107
sS'profile_background_tile'
p108
I00
sS'favourites_count'
p109
I3
sS'screen_name'
p110
S'thomaspuskailer'
p111
sS'notifications'
p112
Nsg56
S'http://www.thomaspuskailer.com'
p113
sS'created_at'
p114
S'Mon Aug 01 19:12:30 +0000 2011'
p115
sS'contributors_enabled'
p116
I00
sS'time_zone'
p117
S'Bratislava'
p118
sS'protected'
p119
I00
sS'default_profile'
p120
I01
sS'is_translator'
p121
I00
ssS'geo'
p122
NsS'in_reply_to_user_id_str'
p123
NsS'possibly_sensitive'
p124
I00
sg106
S'und'
p125
sg114
S'Sat Jun 20 10:13:43 +0000 2015'
p126
sS'filter_level'
p127
S'low'
p128
sS'in_reply_to_status_id_str'
p129
NsS'place'
p130
Nsa(dp131
S'contributors'
p132
NsS'truncated'
p133
I00
sS'text'
p134
S'RT @DubaiPoliceHQ: Dear #Driver:\nDo not be the cause of #traffic #congestion by blocking traffic flow.\n#DubaiPolice #Dubai #Advice #UAE'
p135
sS'in_reply_to_status_id'
p136
NsS'id'
p137
I612201668034232320
sS'favorite_count'
p138
I0
sS'source'
p139
S'<a href="http://twitter.com/download/android" rel="nofollow">Twitter for Android</a>'
p140
sS'retweeted'
p141
I00
sS'coordinates'
p142
NsS'timestamp_ms'
p143
S'1434795226473'
p144
sS'entities'
p145
(dp146
S'user_mentions'
p147
(lp148
(dp149
g137
I193194851
sS'indices'
p150
(lp151
I3
aI17
asS'id_str'
p152
S'193194851'
p153
sS'screen_name'
p154
S'DubaiPoliceHQ'
p155
sS'name'
p156
VDubai Police\u0634\u0631\u0637\u0629 \u062f\u0628\u064a
p157
sasS'symbols'
p158
(lp159
sS'trends'
p160
(lp161
sS'hashtags'
p162
(lp163
(dp164
g150
(lp165
I24
aI31
asg134
S'Driver'
p166
sa(dp167
g150
(lp168
I56
aI64
asg134
S'traffic'
p169
sa(dp170
g150
(lp171
I65
aI76
asg134
S'congestion'
p172
sa(dp173
g150
(lp174
I103
aI115
asg134
S'DubaiPolice'
p175
sa(dp176
g150
(lp177
I116
aI122
asg134
S'Dubai'
p178
sa(dp179
g150
(lp180
I123
aI130
asg134
S'Advice'
p181
sa(dp182
g150
(lp183
I131
aI135
asg134
S'UAE'
p184
sasS'urls'
p185
(lp186
ssS'in_reply_to_screen_name'
p187
Nsg152
S'612201668034232320'
p188
sS'retweet_count'
p189
I0
sS'in_reply_to_user_id'
p190
NsS'favorited'
p191
I00
sS'retweeted_status'
p192
(dp193
g132
Nsg133
I00
sg134
S'Dear #Driver:\nDo not be the cause of #traffic #congestion by blocking traffic flow.\n#DubaiPolice #Dubai #Advice #UAE'
p194
sg136
Nsg137
I612183115583221760
sg138
I4
sg139
S'<a href="http://sproutsocial.com" rel="nofollow">Sprout Social</a>'
p195
sg141
I00
sg142
Nsg145
(dp196
g147
(lp197
sg158
(lp198
sg160
(lp199
sg162
(lp200
(dp201
g150
(lp202
I5
aI12
asg134
S'Driver'
p203
sa(dp204
g150
(lp205
I37
aI45
asg134
S'traffic'
p206
sa(dp207
g150
(lp208
I46
aI57
asg134
S'congestion'
p209
sa(dp210
g150
(lp211
I84
aI96
asg134
S'DubaiPolice'
p212
sa(dp213
g150
(lp214
I97
aI103
asg134
S'Dubai'
p215
sa(dp216
g150
(lp217
I104
aI111
asg134
S'Advice'
p218
sa(dp219
g150
(lp220
I112
aI116
asg134
S'UAE'
p221
sasg185
(lp222
ssg187
Nsg152
S'612183115583221760'
p223
sg189
I5
sg190
Nsg191
I00
sS'user'
p224
(dp225
S'follow_request_sent'
p226
NsS'profile_use_background_image'
p227
I01
sS'default_profile_image'
p228
I00
sg137
I193194851
sS'verified'
p229
I01
sS'profile_image_url_https'
p230
S'https://pbs.twimg.com/profile_images/595888247554723840/LFuSbKcN_normal.jpg'
p231
sS'profile_sidebar_fill_color'
p232
S'EFEFEF'
p233
sS'profile_text_color'
p234
S'333333'
p235
sS'followers_count'
p236
I585401
sS'profile_sidebar_border_color'
p237
S'EEEEEE'
p238
sg152
S'193194851'
p239
sS'profile_background_color'
p240
S'131516'
p241
sS'listed_count'
p242
I953
sS'profile_background_image_url_https'
p243
S'https://abs.twimg.com/images/themes/theme14/bg.gif'
p244
sS'utc_offset'
p245
I14400
sS'statuses_count'
p246
I55219
sS'description'
p247
VEstablished in \u062a\u0640\u0640\u0640\u0623\u0633\u0640\u0633\u0640\u0640\u0640\u0640\u062a \u0639\u0640\u0640\u0640\u0627\u0645 1956
p248
sS'friends_count'
p249
I161
sS'location'
p250
S'Dubai UAE'
p251
sS'profile_link_color'
p252
S'009999'
p253
sS'profile_image_url'
p254
S'http://pbs.twimg.com/profile_images/595888247554723840/LFuSbKcN_normal.jpg'
p255
sS'following'
p256
NsS'geo_enabled'
p257
I00
sS'profile_banner_url'
p258
S'https://pbs.twimg.com/profile_banners/193194851/1434127101'
p259
sS'profile_background_image_url'
p260
S'http://abs.twimg.com/images/themes/theme14/bg.gif'
p261
sg156
VDubai Police\u0634\u0631\u0637\u0629 \u062f\u0628\u064a
p262
sS'lang'
p263
S'en'
p264
sS'profile_background_tile'
p265
I01
sS'favourites_count'
p266
I4
sg154
S'DubaiPoliceHQ'
p267
sS'notifications'
p268
NsS'url'
p269
S'http://www.dubaipolice.gov.ae'
p270
sS'created_at'
p271
S'Tue Sep 21 06:19:26 +0000 2010'
p272
sS'contributors_enabled'
p273
I00
sS'time_zone'
p274
S'Abu Dhabi'
p275
sS'protected'
p276
I00
sS'default_profile'
p277
I00
sS'is_translator'
p278
I00
ssS'geo'
p279
NsS'in_reply_to_user_id_str'
p280
NsS'possibly_sensitive'
p281
I00
sg263
S'en'
p282
sg271
S'Sat Jun 20 09:00:03 +0000 2015'
p283
sS'filter_level'
p284
S'low'
p285
sS'in_reply_to_status_id_str'
p286
NsS'place'
p287
Nssg224
(dp288
g226
Nsg227
I00
sg228
I00
sg137
I566981554
sg229
I00
sg230
S'https://pbs.twimg.com/profile_images/610014098193952768/Gtc0vQMi_normal.jpg'
p289
sg232
S'000000'
p290
sg234
S'000000'
p291
sg236
I54
sg237
S'000000'
p292
sg152
S'566981554'
p293
sg240
S'000000'
p294
sg242
I2
sg243
S'https://abs.twimg.com/images/themes/theme1/bg.png'
p295
sg245
I14400
sg246
I1252
sg247
S'Low Current/Security/ICT company since 2003 based in the UAE'
p296
sg249
I213
sg250
V
p297
sg252
S'3B94D9'
p298
sg254
S'http://pbs.twimg.com/profile_images/610014098193952768/Gtc0vQMi_normal.jpg'
p299
sg256
Nsg257
I00
sg258
S'https://pbs.twimg.com/profile_banners/566981554/1434273340'
p300
sg260
S'http://abs.twimg.com/images/themes/theme1/bg.png'
p301
sg156
S'SWT - ME'
p302
sg263
S'en'
p303
sg265
I00
sg266
I175
sg154
S'Sinewaveme'
p304
sg268
Nsg269
S'http://www.sinewavetechnologies.com'
p305
sg271
S'Mon Apr 30 06:44:53 +0000 2012'
p306
sg273
I00
sg274
S'Abu Dhabi'
p307
sg276
I00
sg277
I00
sg278
I00
ssg279
Nsg280
Nsg281
I00
sg263
S'en'
p308
sg271
S'Sat Jun 20 10:13:46 +0000 2015'
p309
sg284
S'low'
p310
sg286
Nsg287
Nsa(dp311
S'contributors'
p312
NsS'truncated'
p313
I00
sS'text'
p314
S'New review of Filipino Sisa ...Whatzup now in Dubai! https://t.co/VMPhpsN4rs http://t.co/pChmOhcejN'
p315
sS'in_reply_to_status_id'
p316
NsS'id'
p317
I612201682064277504
sS'favorite_count'
p318
I0
sS'source'
p319
S'<a href="http://massagerepublic.com" rel="nofollow">Massage Republic</a>'
p320
sS'retweeted'
p321
I00
sS'coordinates'
p322
NsS'timestamp_ms'
p323
S'1434795229818'
p324
sS'entities'
p325
(dp326
S'symbols'
p327
(lp328
sS'media'
p329
(lp330
(dp331
S'expanded_url'
p332
S'http://twitter.com/ClaireMassRep/status/612201682064277504/photo/1'
p333
sS'display_url'
p334
S'pic.twitter.com/pChmOhcejN'
p335
sS'url'
p336
S'http://t.co/pChmOhcejN'
p337
sS'media_url_https'
p338
S'https://pbs.twimg.com/media/CH76L6tWsAAVSJb.jpg'
p339
sS'id_str'
p340
S'612201682013958144'
p341
sS'sizes'
p342
(dp343
S'large'
p344
(dp345
S'h'
p346
I830
sS'resize'
p347
S'fit'
p348
sS'w'
p349
I634
ssS'small'
p350
(dp351
g346
I445
sg347
S'fit'
p352
sg349
I340
ssS'medium'
p353
(dp354
g346
I785
sg347
S'fit'
p355
sg349
I600
ssS'thumb'
p356
(dp357
g346
I150
sg347
S'crop'
p358
sg349
I150
sssS'indices'
p359
(lp360
I77
aI99
asS'type'
p361
S'photo'
p362
sg317
I612201682013958144
sS'media_url'
p363
S'http://pbs.twimg.com/media/CH76L6tWsAAVSJb.jpg'
p364
sasS'hashtags'
p365
(lp366
sS'user_mentions'
p367
(lp368
sS'trends'
p369
(lp370
sS'urls'
p371
(lp372
(dp373
g336
S'https://t.co/VMPhpsN4rs'
p374
sg359
(lp375
I53
aI76
asg332
S'https://massagerepublic.com/female-escorts-in-dubai/sisi-new-filipino?458936'
p376
sg334
Vmassagerepublic.com/female-escorts\u2026
p377
sassS'in_reply_to_screen_name'
p378
Nsg340
S'612201682064277504'
p379
sS'retweet_count'
p380
I0
sS'in_reply_to_user_id'
p381
NsS'favorited'
p382
I00
sS'user'
p383
(dp384
S'follow_request_sent'
p385
NsS'profile_use_background_image'
p386
I01
sS'default_profile_image'
p387
I00
sg317
I500285921
sS'verified'
p388
I00
sS'profile_image_url_https'
p389
S'https://pbs.twimg.com/profile_images/1846939471/claire_normal.jpg'
p390
sS'profile_sidebar_fill_color'
p391
S'252429'
p392
sS'profile_text_color'
p393
S'666666'
p394
sS'followers_count'
p395
I5525
sS'profile_sidebar_border_color'
p396
S'000000'
p397
sg340
S'500285921'
p398
sS'profile_background_color'
p399
S'1A1B1F'
p400
sS'listed_count'
p401
I24
sS'profile_background_image_url_https'
p402
S'https://pbs.twimg.com/profile_background_images/442509128225677312/RkNMCTBl.jpeg'
p403
sS'utc_offset'
p404
NsS'statuses_count'
p405
I25295
sS'description'
p406
S"Everyone has the right to choose how to make a living - we're working to make that one a little easier!"
p407
sS'friends_count'
p408
I3057
sS'location'
p409
g297
sS'profile_link_color'
p410
S'F4B727'
p411
sS'profile_image_url'
p412
S'http://pbs.twimg.com/profile_images/1846939471/claire_normal.jpg'
p413
sS'following'
p414
NsS'geo_enabled'
p415
I00
sS'profile_banner_url'
p416
S'https://pbs.twimg.com/profile_banners/500285921/1416155547'
p417
sS'profile_background_image_url'
p418
S'http://pbs.twimg.com/profile_background_images/442509128225677312/RkNMCTBl.jpeg'
p419
sS'name'
p420
S'MassageRepublic.com'
p421
sS'lang'
p422
S'en'
p423
sS'profile_background_tile'
p424
I01
sS'favourites_count'
p425
I45
sS'screen_name'
p426
S'ClaireMassRep'
p427
sS'notifications'
p428
Nsg336
S'https://massagerepublic.com/'
p429
sS'created_at'
p430
S'Thu Feb 23 00:17:55 +0000 2012'
p431
sS'contributors_enabled'
p432
I00
sS'time_zone'
p433
NsS'protected'
p434
I00
sS'default_profile'
p435
I00
sS'is_translator'
p436
I00
ssS'geo'
p437
NsS'in_reply_to_user_id_str'
p438
NsS'possibly_sensitive'
p439
I00
sg422
S'tl'
p440
sg430
S'Sat Jun 20 10:13:49 +0000 2015'
p441
sS'filter_level'
p442
S'low'
p443
sS'in_reply_to_status_id_str'
p444
NsS'place'
p445
NsS'extended_entities'
p446
(dp447
g329
(lp448
(dp449
g332
S'http://twitter.com/ClaireMassRep/status/612201682064277504/photo/1'
p450
sg334
S'pic.twitter.com/pChmOhcejN'
p451
sg336
S'http://t.co/pChmOhcejN'
p452
sg338
S'https://pbs.twimg.com/media/CH76L6tWsAAVSJb.jpg'
p453
sg340
S'612201682013958144'
p454
sg342
(dp455
g344
(dp456
g346
I830
sg347
S'fit'
p457
sg349
I634
ssg350
(dp458
g346
I445
sg347
S'fit'
p459
sg349
I340
ssg353
(dp460
g346
I785
sg347
S'fit'
p461
sg349
I600
ssg356
(dp462
g346
I150
sg347
S'crop'
p463
sg349
I150
sssg359
(lp464
I77
aI99
asg361
S'photo'
p465
sg317
I612201682013958144
sg363
S'http://pbs.twimg.com/media/CH76L6tWsAAVSJb.jpg'
p466
sassa(dp467
S'contributors'
p468
NsS'truncated'
p469
I00
sS'text'
p470
S'What a shame!! They should learn from UAE...a far more liberal, cosmo &amp; tolerant society.  https://t.co/m1Vp8ya0P6'
p471
sS'in_reply_to_status_id'
p472
NsS'id'
p473
I612201683511148545
sS'favorite_count'
p474
I0
sS'source'
p475
S'<a href="http://twitter.com" rel="nofollow">Twitter Web Client</a>'
p476
sS'quoted_status_id'
p477
I612148001268600833
sS'retweeted'
p478
I00
sS'coordinates'
p479
NsS'timestamp_ms'
p480
S'1434795230163'
p481
sS'quoted_status'
p482
(dp483
g468
Nsg469
I00
sg470
S'non muslim students forced to eat in toilet in malaysia http://t.co/o3Wzvw48fz link via @HDLkerala http://t.co/51b1L164Lb'
p484
sg472
Nsg473
I612148001268600833
sg474
I0
sg475
S'<a href="https://about.twitter.com/products/tweetdeck" rel="nofollow">TweetDeck</a>'
p485
sg478
I00
sg479
NsS'entities'
p486
(dp487
S'symbols'
p488
(lp489
sS'media'
p490
(lp491
(dp492
S'expanded_url'
p493
S'http://twitter.com/rangats/status/612148001268600833/photo/1'
p494
sS'display_url'
p495
S'pic.twitter.com/51b1L164Lb'
p496
sS'url'
p497
S'http://t.co/51b1L164Lb'
p498
sS'media_url_https'
p499
S'https://pbs.twimg.com/media/CH7JLQPWoAAcqlB.jpg'
p500
sS'id_str'
p501
S'612147794544074752'
p502
sS'sizes'
p503
(dp504
S'large'
p505
(dp506
g346
I450
sS'resize'
p507
S'fit'
p508
sg349
I600
ssS'small'
p509
(dp510
g346
I255
sg507
S'fit'
p511
sg349
I340
ssS'medium'
p512
(dp513
g346
I450
sg507
S'fit'
p514
sg349
I600
ssS'thumb'
p515
(dp516
g346
I150
sg507
S'crop'
p517
sg349
I150
sssS'indices'
p518
(lp519
I99
aI121
asS'type'
p520
S'photo'
p521
sg473
I612147794544074752
sS'media_url'
p522
S'http://pbs.twimg.com/media/CH7JLQPWoAAcqlB.jpg'
p523
sasS'hashtags'
p524
(lp525
sS'user_mentions'
p526
(lp527
(dp528
g473
I2896830572
sg518
(lp529
I88
aI98
asg501
S'2896830572'
p530
sS'screen_name'
p531
S'HDLkerala'
p532
sS'name'
p533
S'HinduDefenseLeague'
p534
sasS'trends'
p535
(lp536
sS'urls'
p537
(lp538
(dp539
g497
S'http://t.co/o3Wzvw48fz'
p540
sg518
(lp541
I56
aI78
asg493
S'http://www.barenakedislam.com/2013/07/23/malaysia-non-muslim-students-forced-to-eat-their-lunches-in-bathroom-during-ramadan/'
p542
sg495
Vbarenakedislam.com/2013/07/23/mal\u2026
p543
sassS'in_reply_to_screen_name'
p544
Nsg501
S'612148001268600833'
p545
sS'retweet_count'
p546
I0
sS'in_reply_to_user_id'
p547
NsS'favorited'
p548
I00
sS'user'
p549
(dp550
S'follow_request_sent'
p551
NsS'profile_use_background_image'
p552
I01
sS'default_profile_image'
p553
I00
sg473
I134160066
sS'verified'
p554
I00
sS'profile_image_url_https'
p555
S'https://pbs.twimg.com/profile_images/585790941824286720/Yhpae-TE_normal.jpg'
p556
sS'profile_sidebar_fill_color'
p557
S'DDFFCC'
p558
sS'profile_text_color'
p559
S'333333'
p560
sS'followers_count'
p561
I9898
sS'profile_sidebar_border_color'
p562
S'BDDCAD'
p563
sg501
S'134160066'
p564
sS'profile_background_color'
p565
S'9AE4E8'
p566
sS'listed_count'
p567
I82
sS'profile_background_image_url_https'
p568
S'https://pbs.twimg.com/profile_background_images/545241986077179905/6vi7F5Eg.jpeg'
p569
sS'utc_offset'
p570
I19800
sS'statuses_count'
p571
I120524
sS'description'
p572
S'want strong india under karma yogi Shree Modi'
p573
sS'friends_count'
p574
I211
sS'location'
p575
S'Madras  '
p576
sS'profile_link_color'
p577
S'0084B4'
p578
sS'profile_image_url'
p579
S'http://pbs.twimg.com/profile_images/585790941824286720/Yhpae-TE_normal.jpg'
p580
sS'following'
p581
NsS'geo_enabled'
p582
I00
sS'profile_banner_url'
p583
S'https://pbs.twimg.com/profile_banners/134160066/1393770078'
p584
sS'profile_background_image_url'
p585
S'http://pbs.twimg.com/profile_background_images/545241986077179905/6vi7F5Eg.jpeg'
p586
sg533
S'S.Ranganathan'
p587
sS'lang'
p588
S'en'
p589
sS'profile_background_tile'
p590
I01
sS'favourites_count'
p591
I51
sg531
S'rangats'
p592
sS'notifications'
p593
Nsg497
NsS'created_at'
p594
S'Sat Apr 17 16:20:04 +0000 2010'
p595
sS'contributors_enabled'
p596
I00
sS'time_zone'
p597
S'Chennai'
p598
sS'protected'
p599
I00
sS'default_profile'
p600
I00
sS'is_translator'
p601
I00
ssS'geo'
p602
NsS'in_reply_to_user_id_str'
p603
NsS'possibly_sensitive'
p604
I00
sg588
S'en'
p605
sg594
S'Sat Jun 20 06:40:31 +0000 2015'
p606
sS'filter_level'
p607
S'low'
p608
sS'in_reply_to_status_id_str'
p609
NsS'place'
p610
NsS'extended_entities'
p611
(dp612
g490
(lp613
(dp614
g493
S'http://twitter.com/rangats/status/612148001268600833/photo/1'
p615
sg495
S'pic.twitter.com/51b1L164Lb'
p616
sg497
S'http://t.co/51b1L164Lb'
p617
sg499
S'https://pbs.twimg.com/media/CH7JLQPWoAAcqlB.jpg'
p618
sg501
S'612147794544074752'
p619
sg503
(dp620
g505
(dp621
g346
I450
sg507
S'fit'
p622
sg349
I600
ssg509
(dp623
g346
I255
sg507
S'fit'
p624
sg349
I340
ssg512
(dp625
g346
I450
sg507
S'fit'
p626
sg349
I600
ssg515
(dp627
g346
I150
sg507
S'crop'
p628
sg349
I150
sssg518
(lp629
I99
aI121
asg520
S'photo'
p630
sg473
I612147794544074752
sg522
S'http://pbs.twimg.com/media/CH7JLQPWoAAcqlB.jpg'
p631
sasssg486
(dp632
g526
(lp633
sg488
(lp634
sg535
(lp635
sg524
(lp636
sg537
(lp637
(dp638
g497
S'https://t.co/m1Vp8ya0P6'
p639
sg518
(lp640
I95
aI118
asg493
S'https://twitter.com/rangats/status/612148001268600833'
p641
sg495
Vtwitter.com/rangats/status\u2026
p642
sassg544
Nsg501
S'612201683511148545'
p643
sg546
I0
sg547
Nsg548
I00
sg549
(dp644
g551
Nsg552
I00
sg553
I00
sg473
I541790875
sg554
I00
sg555
S'https://pbs.twimg.com/profile_images/599264853799272449/DID_NqkW_normal.jpg'
p645
sg557
S'000000'
p646
sg559
S'000000'
p647
sg561
I1167
sg562
S'000000'
p648
sg501
S'541790875'
p649
sg565
S'000000'
p650
sg567
I18
sg568
S'https://abs.twimg.com/images/themes/theme1/bg.png'
p651
sg570
I19800
sg571
I15033
sg572
VA Proud Indian | A Proud Hindu | Modi Bhakt | Lets Join Together to Make India a Super Power | RT \u2260 Endorsement
p652
sg574
I551
sg575
S'India & UAE'
p653
sg577
S'3B94D9'
p654
sg579
S'http://pbs.twimg.com/profile_images/599264853799272449/DID_NqkW_normal.jpg'
p655
sg581
Nsg582
I01
sg583
S'https://pbs.twimg.com/profile_banners/541790875/1417931507'
p656
sg585
S'http://abs.twimg.com/images/themes/theme1/bg.png'
p657
sg533
S'Vivek Mahajan'
p658
sg588
S'en'
p659
sg590
I00
sg591
I7803
sg531
S'MahajanViv'
p660
sg593
Nsg497
Nsg594
S'Sat Mar 31 16:33:58 +0000 2012'
p661
sg596
I00
sg597
S'New Delhi'
p662
sg599
I00
sg600
I00
sg601
I00
ssg602
Nsg603
Nsg604
I00
sg588
S'en'
p663
sg594
S'Sat Jun 20 10:13:50 +0000 2015'
p664
sS'quoted_status_id_str'
p665
S'612148001268600833'
p666
sg607
S'low'
p667
sg609
Nsg610
Nsa(dp668
S'contributors'
p669
NsS'truncated'
p670
I00
sS'text'
p671
S'walah..  https://t.co/kbibANiYSv'
p672
sS'in_reply_to_status_id'
p673
NsS'id'
p674
I612201683670544384
sS'favorite_count'
p675
I0
sS'source'
p676
S'<a href="http://twitter.com/download/android" rel="nofollow">Twitter for Android</a>'
p677
sS'quoted_status_id'
p678
I612201558462238720
sS'retweeted'
p679
I00
sS'coordinates'
p680
NsS'timestamp_ms'
p681
S'1434795230201'
p682
sS'quoted_status'
p683
(dp684
g669
Nsg670
I00
sg671
S'Duh, TKW di Abu Dhabi Dijual Rp 280 Juta Per Orang -  http://t.co/pFcV0xkB7C'
p685
sg673
Nsg674
I612201558462238720
sg675
I0
sg676
S'<a href="http://mobile.twitter.com" rel="nofollow">Mobile Web</a>'
p686
sg679
I00
sg680
NsS'entities'
p687
(dp688
S'user_mentions'
p689
(lp690
sS'symbols'
p691
(lp692
sS'trends'
p693
(lp694
sS'hashtags'
p695
(lp696
sS'urls'
p697
(lp698
(dp699
S'url'
p700
S'http://t.co/pFcV0xkB7C'
p701
sS'indices'
p702
(lp703
I54
aI76
asS'expanded_url'
p704
S'http://www.citizenjurnalism.com/2015/06/19/duh-tkw-di-abu-dhabi-dijual-rp-280-juta-per-orang/'
p705
sS'display_url'
p706
Vcitizenjurnalism.com/2015/06/19/duh\u2026
p707
sassS'in_reply_to_screen_name'
p708
NsS'id_str'
p709
S'612201558462238720'
p710
sS'retweet_count'
p711
I0
sS'in_reply_to_user_id'
p712
NsS'favorited'
p713
I00
sS'user'
p714
(dp715
S'follow_request_sent'
p716
NsS'profile_use_background_image'
p717
I01
sS'default_profile_image'
p718
I00
sg674
I857262912
sS'verified'
p719
I00
sS'profile_image_url_https'
p720
S'https://pbs.twimg.com/profile_images/606655891429982209/YWwrqjuU_normal.jpg'
p721
sS'profile_sidebar_fill_color'
p722
S'DAECF4'
p723
sS'profile_text_color'
p724
S'663B12'
p725
sS'followers_count'
p726
I1432
sS'profile_sidebar_border_color'
p727
S'FFFFFF'
p728
sg709
S'857262912'
p729
sS'profile_background_color'
p730
S'C6E2EE'
p731
sS'listed_count'
p732
I3
sS'profile_background_image_url_https'
p733
S'https://pbs.twimg.com/profile_background_images/483028601424461825/7JxA5wVK.jpeg'
p734
sS'utc_offset'
p735
I25200
sS'statuses_count'
p736
I46713
sS'description'
p737
NsS'friends_count'
p738
I1795
sS'location'
p739
S'Surabaya - Indonesia'
p740
sS'profile_link_color'
p741
S'1F98C7'
p742
sS'profile_image_url'
p743
S'http://pbs.twimg.com/profile_images/606655891429982209/YWwrqjuU_normal.jpg'
p744
sS'following'
p745
NsS'geo_enabled'
p746
I01
sS'profile_banner_url'
p747
S'https://pbs.twimg.com/profile_banners/857262912/1433212615'
p748
sS'profile_background_image_url'
p749
S'http://pbs.twimg.com/profile_background_images/483028601424461825/7JxA5wVK.jpeg'
p750
sS'name'
p751
S'Bachtiar Abukasim'
p752
sS'lang'
p753
S'en'
p754
sS'profile_background_tile'
p755
I01
sS'favourites_count'
p756
I898
sS'screen_name'
p757
S'BachAbukasim'
p758
sS'notifications'
p759
Nsg700
NsS'created_at'
p760
S'Tue Oct 02 00:51:43 +0000 2012'
p761
sS'contributors_enabled'
p762
I00
sS'time_zone'
p763
S'Jakarta'
p764
sS'protected'
p765
I00
sS'default_profile'
p766
I00
sS'is_translator'
p767
I00
ssS'geo'
p768
NsS'in_reply_to_user_id_str'
p769
NsS'possibly_sensitive'
p770
I00
sg753
S'in'
p771
sg760
S'Sat Jun 20 10:13:20 +0000 2015'
p772
sS'filter_level'
p773
S'low'
p774
sS'in_reply_to_status_id_str'
p775
NsS'place'
p776
Nssg687
(dp777
g689
(lp778
sg691
(lp779
sg693
(lp780
sg695
(lp781
sg697
(lp782
(dp783
g700
S'https://t.co/kbibANiYSv'
p784
sg702
(lp785
I9
aI32
asg704
S'https://twitter.com/BachAbukasim/status/612201558462238720'
p786
sg706
Vtwitter.com/BachAbukasim/s\u2026
p787
sassg708
Nsg709
S'612201683670544384'
p788
sg711
I0
sg712
Nsg713
I00
sg714
(dp789
g716
Nsg717
I01
sg718
I00
sg674
I205528353
sg719
I00
sg720
S'https://pbs.twimg.com/profile_images/597552596555988993/DglFdgn4_normal.jpg'
p790
sg722
S'A0C5C7'
p791
sg724
S'333333'
p792
sg726
I3506
sg727
S'000000'
p793
sg709
S'205528353'
p794
sg730
S'5DBD37'
p795
sg732
I10
sg733
S'https://pbs.twimg.com/profile_background_images/378800000000094175/26a2f5a8a0e4f1ac1a9756c655f641bb.jpeg'
p796
sg735
I25200
sg736
I71369
sg737
S"don't be a coward!"
p797
sg738
I1435
sg739
S'right here'
p798
sg741
S'5C562C'
p799
sg743
S'http://pbs.twimg.com/profile_images/597552596555988993/DglFdgn4_normal.jpg'
p800
sg745
Nsg746
I01
sg747
S'https://pbs.twimg.com/profile_banners/205528353/1406309399'
p801
sg749
S'http://pbs.twimg.com/profile_background_images/378800000000094175/26a2f5a8a0e4f1ac1a9756c655f641bb.jpeg'
p802
sg751
S'maknya kucing'
p803
sg753
S'en'
p804
sg755
I00
sg756
I194
sg757
S'nonarray'
p805
sg759
Nsg700
Nsg760
S'Thu Oct 21 02:20:09 +0000 2010'
p806
sg762
I00
sg763
S'Jakarta'
p807
sg765
I00
sg766
I00
sg767
I00
ssg768
Nsg769
Nsg770
I00
sg753
S'in'
p808
sg760
S'Sat Jun 20 10:13:50 +0000 2015'
p809
sS'quoted_status_id_str'
p810
S'612201558462238720'
p811
sg773
S'low'
p812
sg775
Nsg776
Nsa(dp813
S'contributors'
p814
NsS'truncated'
p815
I00
sS'text'
p816
S'RT @insan_divya: 79th nd 80th Blood donation Camp organized at UAE On May1,2015 at SKMC #MSGTrueBloodPump http://t.co/Bane99FxU4'
p817
sS'in_reply_to_status_id'
p818
NsS'id'
p819
I612201688305287168
sS'favorite_count'
p820
I0
sS'source'
p821
S'<a href="http://twitter.com/download/android" rel="nofollow">Twitter for Android</a>'
p822
sS'retweeted'
p823
I00
sS'coordinates'
p824
NsS'timestamp_ms'
p825
S'1434795231306'
p826
sS'entities'
p827
(dp828
S'symbols'
p829
(lp830
sS'media'
p831
(lp832
(dp833
S'source_status_id_str'
p834
S'610392298468171776'
p835
sS'expanded_url'
p836
S'http://twitter.com/insan_divya/status/610392298468171776/photo/1'
p837
sS'display_url'
p838
S'pic.twitter.com/Bane99FxU4'
p839
sS'url'
p840
S'http://t.co/Bane99FxU4'
p841
sS'media_url_https'
p842
S'https://pbs.twimg.com/media/CHiMiVPUwAAgajJ.jpg'
p843
sS'source_status_id'
p844
I610392298468171776
sS'id_str'
p845
S'610392270953562112'
p846
sS'sizes'
p847
(dp848
S'large'
p849
(dp850
g346
I349
sS'resize'
p851
S'fit'
p852
sg349
I495
ssS'small'
p853
(dp854
g346
I239
sg851
S'fit'
p855
sg349
I340
ssS'medium'
p856
(dp857
g346
I349
sg851
S'fit'
p858
sg349
I495
ssS'thumb'
p859
(dp860
g346
I150
sg851
S'crop'
p861
sg349
I150
sssS'indices'
p862
(lp863
I106
aI128
asS'type'
p864
S'photo'
p865
sg819
I610392270953562112
sS'media_url'
p866
S'http://pbs.twimg.com/media/CHiMiVPUwAAgajJ.jpg'
p867
sasS'hashtags'
p868
(lp869
(dp870
g862
(lp871
I88
aI105
asg816
S'MSGTrueBloodPump'
p872
sasS'user_mentions'
p873
(lp874
(dp875
g819
I2856673791
sg862
(lp876
I3
aI15
asg845
S'2856673791'
p877
sS'screen_name'
p878
S'insan_divya'
p879
sS'name'
p880
S'Divya Garg'
p881
sasS'trends'
p882
(lp883
sS'urls'
p884
(lp885
ssS'in_reply_to_screen_name'
p886
Nsg845
S'612201688305287168'
p887
sS'retweet_count'
p888
I0
sS'in_reply_to_user_id'
p889
NsS'favorited'
p890
I00
sS'retweeted_status'
p891
(dp892
g814
Nsg815
I00
sg816
S'79th nd 80th Blood donation Camp organized at UAE On May1,2015 at SKMC #MSGTrueBloodPump http://t.co/Bane99FxU4'
p893
sg818
Nsg819
I610392298468171776
sg820
I23
sg821
S'<a href="http://twitter.com/download/android" rel="nofollow">Twitter for Android</a>'
p894
sg823
I00
sg824
Nsg827
(dp895
g829
(lp896
sg831
(lp897
(dp898
g836
S'http://twitter.com/insan_divya/status/610392298468171776/photo/1'
p899
sg838
S'pic.twitter.com/Bane99FxU4'
p900
sg840
S'http://t.co/Bane99FxU4'
p901
sg842
S'https://pbs.twimg.com/media/CHiMiVPUwAAgajJ.jpg'
p902
sg845
S'610392270953562112'
p903
sg847
(dp904
g849
(dp905
g346
I349
sg851
S'fit'
p906
sg349
I495
ssg853
(dp907
g346
I239
sg851
S'fit'
p908
sg349
I340
ssg856
(dp909
g346
I349
sg851
S'fit'
p910
sg349
I495
ssg859
(dp911
g346
I150
sg851
S'crop'
p912
sg349
I150
sssg862
(lp913
I89
aI111
asg864
S'photo'
p914
sg819
I610392270953562112
sg866
S'http://pbs.twimg.com/media/CHiMiVPUwAAgajJ.jpg'
p915
sasg868
(lp916
(dp917
g862
(lp918
I71
aI88
asg816
S'MSGTrueBloodPump'
p919
sasg873
(lp920
sg882
(lp921
sg884
(lp922
ssg886
Nsg845
S'610392298468171776'
p923
sg888
I108
sg889
Nsg890
I00
sS'user'
p924
(dp925
S'follow_request_sent'
p926
NsS'profile_use_background_image'
p927
I01
sS'default_profile_image'
p928
I00
sg819
I2856673791
sS'verified'
p929
I00
sS'profile_image_url_https'
p930
S'https://pbs.twimg.com/profile_images/609617135975792640/J0gMQn3k_normal.jpg'
p931
sS'profile_sidebar_fill_color'
p932
S'E6F6F9'
p933
sS'profile_text_color'
p934
S'333333'
p935
sS'followers_count'
p936
I3381
sS'profile_sidebar_border_color'
p937
S'DBE9ED'
p938
sg845
S'2856673791'
p939
sS'profile_background_color'
p940
S'DBE9ED'
p941
sS'listed_count'
p942
I8
sS'profile_background_image_url_https'
p943
S'https://abs.twimg.com/images/themes/theme17/bg.gif'
p944
sS'utc_offset'
p945
NsS'statuses_count'
p946
I10954
sS'description'
p947
S'My Father is The KING Of The KINGS nd I m his LITTLE ANGEL,completed ETE(JBT),graduation, doing Masters in eduction, working as guest teacher in gov school'
p948
sS'friends_count'
p949
I30
sS'location'
p950
S'narela,delhi'
p951
sS'profile_link_color'
p952
S'CC3366'
p953
sS'profile_image_url'
p954
S'http://pbs.twimg.com/profile_images/609617135975792640/J0gMQn3k_normal.jpg'
p955
sS'following'
p956
NsS'geo_enabled'
p957
I01
sS'profile_banner_url'
p958
S'https://pbs.twimg.com/profile_banners/2856673791/1432015111'
p959
sS'profile_background_image_url'
p960
S'http://abs.twimg.com/images/themes/theme17/bg.gif'
p961
sg880
S'Divya Garg'
p962
sS'lang'
p963
S'en'
p964
sS'profile_background_tile'
p965
I00
sS'favourites_count'
p966
I2591
sg878
S'insan_divya'
p967
sS'notifications'
p968
Nsg840
NsS'created_at'
p969
S'Sun Nov 02 12:36:34 +0000 2014'
p970
sS'contributors_enabled'
p971
I00
sS'time_zone'
p972
NsS'protected'
p973
I00
sS'default_profile'
p974
I00
sS'is_translator'
p975
I00
ssS'geo'
p976
NsS'in_reply_to_user_id_str'
p977
NsS'possibly_sensitive'
p978
I00
sg963
S'en'
p979
sg969
S'Mon Jun 15 10:23:59 +0000 2015'
p980
sS'filter_level'
p981
S'low'
p982
sS'in_reply_to_status_id_str'
p983
NsS'place'
p984
NsS'extended_entities'
p985
(dp986
g831
(lp987
(dp988
g836
S'http://twitter.com/insan_divya/status/610392298468171776/photo/1'
p989
sg838
S'pic.twitter.com/Bane99FxU4'
p990
sg840
S'http://t.co/Bane99FxU4'
p991
sg842
S'https://pbs.twimg.com/media/CHiMiVPUwAAgajJ.jpg'
p992
sg845
S'610392270953562112'
p993
sg847
(dp994
g849
(dp995
g346
I349
sg851
S'fit'
p996
sg349
I495
ssg853
(dp997
g346
I239
sg851
S'fit'
p998
sg349
I340
ssg856
(dp999
g346
I349
sg851
S'fit'
p1000
sg349
I495
ssg859
(dp1001
g346
I150
sg851
S'crop'
p1002
sg349
I150
sssg862
(lp1003
I89
aI111
asg864
S'photo'
p1004
sg819
I610392270953562112
sg866
S'http://pbs.twimg.com/media/CHiMiVPUwAAgajJ.jpg'
p1005
sa(dp1006
g836
S'http://twitter.com/insan_divya/status/610392298468171776/photo/1'
p1007
sg838
S'pic.twitter.com/Bane99FxU4'
p1008
sg840
S'http://t.co/Bane99FxU4'
p1009
sg842
S'https://pbs.twimg.com/media/CHiMjLWUwAA5X2T.jpg'
p1010
sg845
S'610392285478436864'
p1011
sg847
(dp1012
g853
(dp1013
g346
I241
sg851
S'fit'
p1014
sg349
I340
ssg849
(dp1015
g346
I351
sg851
S'fit'
p1016
sg349
I495
ssg856
(dp1017
g346
I351
sg851
S'fit'
p1018
sg349
I495
ssg859
(dp1019
g346
I150
sg851
S'crop'
p1020
sg349
I150
sssg862
(lp1021
I89
aI111
asg864
S'photo'
p1022
sg819
I610392285478436864
sg866
S'http://pbs.twimg.com/media/CHiMjLWUwAA5X2T.jpg'
p1023
sasssg924
(dp1024
g926
Nsg927
I01
sg928
I00
sg819
I2876212357
sg929
I00
sg930
S'https://pbs.twimg.com/profile_images/609768811323981825/gi0HVBLs_normal.jpg'
p1025
sg932
S'DDEEF6'
p1026
sg934
S'333333'
p1027
sg936
I1231
sg937
S'C0DEED'
p1028
sg845
S'2876212357'
p1029
sg940
S'C0DEED'
p1030
sg942
I12
sg943
S'https://abs.twimg.com/images/themes/theme1/bg.png'
p1031
sg945
Nsg946
I93203
sg947
S'mujhe jaanta h satguru tere naam se jmana'
p1032
sg949
I2005
sg950
S'hansi '
p1033
sg952
S'0084B4'
p1034
sg954
S'http://pbs.twimg.com/profile_images/609768811323981825/gi0HVBLs_normal.jpg'
p1035
sg956
Nsg957
I00
sg958
S'https://pbs.twimg.com/profile_banners/2876212357/1432520269'
p1036
sg960
S'http://abs.twimg.com/images/themes/theme1/bg.png'
p1037
sg880
S'Raju Halwai '
p1038
sg963
S'en'
p1039
sg965
I00
sg966
I4622
sg878
S'defad920f38440c'
p1040
sg968
Nsg840
Nsg969
S'Sat Oct 25 04:11:40 +0000 2014'
p1041
sg971
I00
sg972
Nsg973
I00
sg974
I01
sg975
I00
ssg976
Nsg977
Nsg978
I00
sg963
S'en'
p1042
sg969
S'Sat Jun 20 10:13:51 +0000 2015'
p1043
sg981
S'low'
p1044
sg983
Nsg984
Nsg985
(dp1045
g831
(lp1046
(dp1047
g834
S'610392298468171776'
p1048
sg836
S'http://twitter.com/insan_divya/status/610392298468171776/photo/1'
p1049
sg838
S'pic.twitter.com/Bane99FxU4'
p1050
sg840
S'http://t.co/Bane99FxU4'
p1051
sg842
S'https://pbs.twimg.com/media/CHiMiVPUwAAgajJ.jpg'
p1052
sg844
I610392298468171776
sg845
S'610392270953562112'
p1053
sg847
(dp1054
g849
(dp1055
g346
I349
sg851
S'fit'
p1056
sg349
I495
ssg853
(dp1057
g346
I239
sg851
S'fit'
p1058
sg349
I340
ssg856
(dp1059
g346
I349
sg851
S'fit'
p1060
sg349
I495
ssg859
(dp1061
g346
I150
sg851
S'crop'
p1062
sg349
I150
sssg862
(lp1063
I106
aI128
asg864
S'photo'
p1064
sg819
I610392270953562112
sg866
S'http://pbs.twimg.com/media/CHiMiVPUwAAgajJ.jpg'
p1065
sa(dp1066
g834
S'610392298468171776'
p1067
sg836
S'http://twitter.com/insan_divya/status/610392298468171776/photo/1'
p1068
sg838
S'pic.twitter.com/Bane99FxU4'
p1069
sg840
S'http://t.co/Bane99FxU4'
p1070
sg842
S'https://pbs.twimg.com/media/CHiMjLWUwAA5X2T.jpg'
p1071
sg844
I610392298468171776
sg845
S'610392285478436864'
p1072
sg847
(dp1073
g853
(dp1074
g346
I241
sg851
S'fit'
p1075
sg349
I340
ssg849
(dp1076
g346
I351
sg851
S'fit'
p1077
sg349
I495
ssg856
(dp1078
g346
I351
sg851
S'fit'
p1079
sg349
I495
ssg859
(dp1080
g346
I150
sg851
S'crop'
p1081
sg349
I150
sssg862
(lp1082
I106
aI128
asg864
S'photo'
p1083
sg819
I610392285478436864
sg866
S'http://pbs.twimg.com/media/CHiMjLWUwAA5X2T.jpg'
p1084
sassa(dp1085
S'contributors'
p1086
NsS'truncated'
p1087
I00
sS'text'
p1088
VRT @ABZayed: \u0627\u0643\u062b\u0631 \u0645\u0627 \u064a\u062e\u0641\u0641 \u0639\u0646\u064a \u062d\u0632\u0646\u064a \u0648 \u0634\u0648\u0642\u064a \u0644\u0644\u0648\u0627\u0644\u062f \u0631\u062d\u0645\u0647 \u0627\u0644\u0644\u0647 \u0647\u0648 \u0639\u0645\u0644\u0643\u0645 \u0627\u0644\u0645\u062e\u0644\u0635 \u062a\u062c\u0627\u0629 \u062f\u0627\u0631 \u0632\u0627\u064a\u062f \u0623\u062d\u0633\u0646\u0648\u0627 \u064a\u0627 \u0639\u064a\u0627\u0644 \u0632\u0627\u064a\u062f \u0631\u0628\u064a \u064a\u062c\u0639\u0644\u0643\u0645 \u0630\u062e\u0631 \u0644\u0644\u0648\u0637\u0646 \u0648\u0627\u0644\u0642\u0627\u0626\u062f \u000a\u2026
p1089
sS'in_reply_to_status_id'
p1090
NsS'id'
p1091
I612201693707567104
sS'favorite_count'
p1092
I0
sS'source'
p1093
S'<a href="http://twitter.com/download/iphone" rel="nofollow">Twitter for iPhone</a>'
p1094
sS'retweeted'
p1095
I00
sS'coordinates'
p1096
NsS'timestamp_ms'
p1097
S'1434795232594'
p1098
sS'entities'
p1099
(dp1100
S'user_mentions'
p1101
(lp1102
(dp1103
g1091
I398593054
sS'indices'
p1104
(lp1105
I3
aI11
asS'id_str'
p1106
S'398593054'
p1107
sS'screen_name'
p1108
S'ABZayed'
p1109
sS'name'
p1110
V\u0639\u0628\u062f\u0627\u0644\u0644\u0647 \u0628\u0646 \u0632\u0627\u064a\u062f
p1111
sasS'symbols'
p1112
(lp1113
sS'trends'
p1114
(lp1115
sS'hashtags'
p1116
(lp1117
(dp1118
g1104
(lp1119
I139
aI140
asg1088
S'UAE'
p1120
sasS'urls'
p1121
(lp1122
ssS'in_reply_to_screen_name'
p1123
Nsg1106
S'612201693707567104'
p1124
sS'retweet_count'
p1125
I0
sS'in_reply_to_user_id'
p1126
NsS'favorited'
p1127
I00
sS'retweeted_status'
p1128
(dp1129
g1086
Nsg1087
I00
sg1088
V\u0627\u0643\u062b\u0631 \u0645\u0627 \u064a\u062e\u0641\u0641 \u0639\u0646\u064a \u062d\u0632\u0646\u064a \u0648 \u0634\u0648\u0642\u064a \u0644\u0644\u0648\u0627\u0644\u062f \u0631\u062d\u0645\u0647 \u0627\u0644\u0644\u0647 \u0647\u0648 \u0639\u0645\u0644\u0643\u0645 \u0627\u0644\u0645\u062e\u0644\u0635 \u062a\u062c\u0627\u0629 \u062f\u0627\u0631 \u0632\u0627\u064a\u062f \u0623\u062d\u0633\u0646\u0648\u0627 \u064a\u0627 \u0639\u064a\u0627\u0644 \u0632\u0627\u064a\u062f \u0631\u0628\u064a \u064a\u062c\u0639\u0644\u0643\u0645 \u0630\u062e\u0631 \u0644\u0644\u0648\u0637\u0646 \u0648\u0627\u0644\u0642\u0627\u0626\u062f \u000a#UAE
p1130
sg1090
Nsg1091
I142927636593770496
sg1092
I1548
sg1093
S'<a href="http://twitter.com/download/iphone" rel="nofollow">Twitter for iPhone</a>'
p1131
sg1095
I00
sg1096
Nsg1099
(dp1132
g1101
(lp1133
sg1112
(lp1134
sg1114
(lp1135
sg1116
(lp1136
(dp1137
g1104
(lp1138
I126
aI130
asg1088
S'UAE'
p1139
sasg1121
(lp1140
ssg1123
Nsg1106
S'142927636593770496'
p1141
sg1125
I8516
sg1126
Nsg1127
I00
sS'user'
p1142
(dp1143
S'follow_request_sent'
p1144
NsS'profile_use_background_image'
p1145
I01
sS'default_profile_image'
p1146
I00
sg1091
I398593054
sS'verified'
p1147
I01
sS'profile_image_url_https'
p1148
S'https://pbs.twimg.com/profile_images/415085785264951296/XZ3-zjhK_normal.jpeg'
p1149
sS'profile_sidebar_fill_color'
p1150
S'DDEEF6'
p1151
sS'profile_text_color'
p1152
S'333333'
p1153
sS'followers_count'
p1154
I1810026
sS'profile_sidebar_border_color'
p1155
S'C0DEED'
p1156
sg1106
S'398593054'
p1157
sS'profile_background_color'
p1158
S'C0DEED'
p1159
sS'listed_count'
p1160
I3821
sS'profile_background_image_url_https'
p1161
S'https://abs.twimg.com/images/themes/theme1/bg.png'
p1162
sS'utc_offset'
p1163
I10800
sS'statuses_count'
p1164
I7895
sS'description'
p1165
V\u062d\u0633\u0627\u0628 \u0634\u062e\u0635\u064a
p1166
sS'friends_count'
p1167
I526
sS'location'
p1168
g297
sS'profile_link_color'
p1169
S'0084B4'
p1170
sS'profile_image_url'
p1171
S'http://pbs.twimg.com/profile_images/415085785264951296/XZ3-zjhK_normal.jpeg'
p1172
sS'following'
p1173
NsS'geo_enabled'
p1174
I00
sS'profile_banner_url'
p1175
S'https://pbs.twimg.com/profile_banners/398593054/1377340015'
p1176
sS'profile_background_image_url'
p1177
S'http://abs.twimg.com/images/themes/theme1/bg.png'
p1178
sg1110
V\u0639\u0628\u062f\u0627\u0644\u0644\u0647 \u0628\u0646 \u0632\u0627\u064a\u062f
p1179
sS'lang'
p1180
S'en'
p1181
sS'profile_background_tile'
p1182
I00
sS'favourites_count'
p1183
I466
sg1108
S'ABZayed'
p1184
sS'notifications'
p1185
NsS'url'
p1186
NsS'created_at'
p1187
S'Wed Oct 26 08:40:18 +0000 2011'
p1188
sS'contributors_enabled'
p1189
I00
sS'time_zone'
p1190
S'Baghdad'
p1191
sS'protected'
p1192
I00
sS'default_profile'
p1193
I01
sS'is_translator'
p1194
I00
ssS'geo'
p1195
NsS'in_reply_to_user_id_str'
p1196
NsS'possibly_sensitive'
p1197
I00
sg1180
S'ar'
p1198
sg1187
S'Sat Dec 03 11:26:18 +0000 2011'
p1199
sS'filter_level'
p1200
S'low'
p1201
sS'in_reply_to_status_id_str'
p1202
NsS'place'
p1203
Nssg1142
(dp1204
g1144
Nsg1145
I01
sg1146
I00
sg1091
I375129087
sg1147
I00
sg1148
S'https://pbs.twimg.com/profile_images/605929075153117184/jgkajEJC_normal.jpg'
p1205
sg1150
S'A0C5C7'
p1206
sg1152
S'333333'
p1207
sg1154
I1047
sg1155
S'86A4A6'
p1208
sg1106
S'375129087'
p1209
sg1158
S'709397'
p1210
sg1160
I1
sg1161
S'https://abs.twimg.com/images/themes/theme6/bg.gif'
p1211
sg1163
I14400
sg1164
I22697
sg1165
V\u264e\ufe0f
p1212
sg1167
I235
sg1168
S'sharjah'
p1213
sg1169
S'13F2C5'
p1214
sg1171
S'http://pbs.twimg.com/profile_images/605929075153117184/jgkajEJC_normal.jpg'
p1215
sg1173
Nsg1174
I01
sg1175
S'https://pbs.twimg.com/profile_banners/375129087/1434377664'
p1216
sg1177
S'http://abs.twimg.com/images/themes/theme6/bg.gif'
p1217
sg1110
S'$'
p1218
sg1180
S'en'
p1219
sg1182
I00
sg1183
I595
sg1108
S'sheikhawest'
p1220
sg1185
Nsg1186
Nsg1187
S'Sat Sep 17 15:13:25 +0000 2011'
p1221
sg1189
I00
sg1190
S'Abu Dhabi'
p1222
sg1192
I00
sg1193
I00
sg1194
I00
ssg1195
Nsg1196
Nsg1197
I00
sg1180
S'ar'
p1223
sg1187
S'Sat Jun 20 10:13:52 +0000 2015'
p1224
sg1200
S'low'
p1225
sg1202
Nsg1203
Nsa(dp1226
S'contributors'
p1227
NsS'truncated'
p1228
I00
sS'text'
p1229
V@101GWX @iAka0 @Senyorita_051 \u000a\u064a\u0639\u0646\u064a \u0627\u0646\u0627 \u0645\u0627 \u063a\u0644\u0637\u0627\u0646 \u0648\u0644\u0644\u0647 \u0627\u0644\u062d\u0645\u062f
p1230
sS'in_reply_to_status_id'
p1231
I612201500429783040
sS'id'
p1232
I612201698354790400
sS'favorite_count'
p1233
I0
sS'source'
p1234
S'<a href="http://twitter.com/download/android" rel="nofollow">Twitter for Android</a>'
p1235
sS'retweeted'
p1236
I00
sS'coordinates'
p1237
NsS'timestamp_ms'
p1238
S'1434795233702'
p1239
sS'entities'
p1240
(dp1241
S'user_mentions'
p1242
(lp1243
(dp1244
g1232
I1606397120
sS'indices'
p1245
(lp1246
I0
aI7
asS'id_str'
p1247
S'1606397120'
p1248
sS'screen_name'
p1249
S'101GWX'
p1250
sS'name'
p1251
V\ufe0f#\u0643\u0648\u0644\u0648\u0645\u0628\u064a\u0627
p1252
sa(dp1253
g1232
I750466664
sg1245
(lp1254
I8
aI14
asg1247
S'750466664'
p1255
sg1249
S'iAka0'
p1256
sg1251
VAka \uf8ff
p1257
sa(dp1258
g1232
I2364512029
sg1245
(lp1259
I15
aI29
asg1247
S'2364512029'
p1260
sg1249
S'Senyorita_051'
p1261
sg1251
V\u062e\u064e\u0646\u062f\u0648\u0632 
p1262
sasS'symbols'
p1263
(lp1264
sS'trends'
p1265
(lp1266
sS'hashtags'
p1267
(lp1268
sS'urls'
p1269
(lp1270
ssS'in_reply_to_screen_name'
p1271
S'101GWX'
p1272
sg1247
S'612201698354790400'
p1273
sS'retweet_count'
p1274
I0
sS'in_reply_to_user_id'
p1275
I1606397120
sS'favorited'
p1276
I00
sS'user'
p1277
(dp1278
S'follow_request_sent'
p1279
NsS'profile_use_background_image'
p1280
I01
sS'default_profile_image'
p1281
I00
sg1232
I1420993050
sS'verified'
p1282
I00
sS'profile_image_url_https'
p1283
S'https://pbs.twimg.com/profile_images/611525417573335040/Bzf_OT65_normal.jpg'
p1284
sS'profile_sidebar_fill_color'
p1285
S'DDEEF6'
p1286
sS'profile_text_color'
p1287
S'333333'
p1288
sS'followers_count'
p1289
I2124
sS'profile_sidebar_border_color'
p1290
S'C0DEED'
p1291
sg1247
S'1420993050'
p1292
sS'profile_background_color'
p1293
S'C0DEED'
p1294
sS'listed_count'
p1295
I2
sS'profile_background_image_url_https'
p1296
S'https://abs.twimg.com/images/themes/theme1/bg.png'
p1297
sS'utc_offset'
p1298
NsS'statuses_count'
p1299
I16793
sS'description'
p1300
VHala Madrid Y nad mas\u000a\u000a\u000a                                                         \u0639\u064f\u0645\u0627\u0646
p1301
sS'friends_count'
p1302
I281
sS'location'
p1303
g297
sS'profile_link_color'
p1304
S'0084B4'
p1305
sS'profile_image_url'
p1306
S'http://pbs.twimg.com/profile_images/611525417573335040/Bzf_OT65_normal.jpg'
p1307
sS'following'
p1308
NsS'geo_enabled'
p1309
I01
sS'profile_banner_url'
p1310
S'https://pbs.twimg.com/profile_banners/1420993050/1427565591'
p1311
sS'profile_background_image_url'
p1312
S'http://abs.twimg.com/images/themes/theme1/bg.png'
p1313
sg1251
V\u0639\u064a\u0633\u0649 | \u0643\u0648\u0644\u0648\u0645\u0628\u064a
p1314
sS'lang'
p1315
S'ar'
p1316
sS'profile_background_tile'
p1317
I00
sS'favourites_count'
p1318
I22
sg1249
S'Ba7ri__'
p1319
sS'notifications'
p1320
NsS'url'
p1321
NsS'created_at'
p1322
S'Sat May 11 16:10:31 +0000 2013'
p1323
sS'contributors_enabled'
p1324
I00
sS'time_zone'
p1325
NsS'protected'
p1326
I00
sS'default_profile'
p1327
I01
sS'is_translator'
p1328
I00
ssS'geo'
p1329
NsS'in_reply_to_user_id_str'
p1330
S'1606397120'
p1331
sS'possibly_sensitive'
p1332
I00
sg1315
S'ar'
p1333
sg1322
S'Sat Jun 20 10:13:53 +0000 2015'
p1334
sS'filter_level'
p1335
S'low'
p1336
sS'in_reply_to_status_id_str'
p1337
S'612201500429783040'
p1338
sS'place'
p1339
(dp1340
S'full_name'
p1341
V\u0627\u0644\u0628\u0627\u0637\u0646\u0629, \u0633\u0644\u0637\u0646\u0629 \u0639\u0645\u0627\u0646
p1342
sg1321
S'https://api.twitter.com/1.1/geo/id/0066d5360cb2ce54.json'
p1343
sS'country'
p1344
S'Oman'
p1345
sS'place_type'
p1346
S'admin'
p1347
sS'bounding_box'
p1348
(dp1349
S'type'
p1350
S'Polygon'
p1351
sg1237
(lp1352
(lp1353
(lp1354
F56.1384008
aF23.2917798
aa(lp1355
F56.1384008
aF24.9809241
aa(lp1356
F58.2791504
aF24.9809241
aa(lp1357
F58.2791504
aF23.2917798
aaassS'country_code'
p1358
S'OM'
p1359
sS'attributes'
p1360
(dp1361
sg1232
S'0066d5360cb2ce54'
p1362
sg1251
V\u0627\u0644\u0628\u0627\u0637\u0646\u0629
p1363
ssa(dp1364
S'contributors'
p1365
NsS'truncated'
p1366
I00
sS'text'
p1367
V\u0627\u06cc\u0646\u0627 \u062e\u06cc\u0644\u06cc \u062e\u0648\u0628\u0646. http://t.co/WeVGYYVX0A
p1368
sS'in_reply_to_status_id'
p1369
NsS'id'
p1370
I612201697713106944
sS'favorite_count'
p1371
I0
sS'source'
p1372
S'<a href="http://twitter.com/download/android" rel="nofollow">Twitter for Android</a>'
p1373
sS'retweeted'
p1374
I00
sS'coordinates'
p1375
NsS'timestamp_ms'
p1376
S'1434795233549'
p1377
sS'entities'
p1378
(dp1379
S'symbols'
p1380
(lp1381
sS'media'
p1382
(lp1383
(dp1384
S'expanded_url'
p1385
S'http://twitter.com/Mah_m_ood/status/612201697713106944/photo/1'
p1386
sS'display_url'
p1387
S'pic.twitter.com/WeVGYYVX0A'
p1388
sS'url'
p1389
S'http://t.co/WeVGYYVX0A'
p1390
sS'media_url_https'
p1391
S'https://pbs.twimg.com/media/CH76KbBUMAAY2pa.jpg'
p1392
sS'id_str'
p1393
S'612201656327876608'
p1394
sS'sizes'
p1395
(dp1396
S'small'
p1397
(dp1398
g346
I340
sS'resize'
p1399
S'fit'
p1400
sg349
I340
ssS'large'
p1401
(dp1402
g346
I640
sg1399
S'fit'
p1403
sg349
I640
ssS'medium'
p1404
(dp1405
g346
I600
sg1399
S'fit'
p1406
sg349
I600
ssS'thumb'
p1407
(dp1408
g346
I150
sg1399
S'crop'
p1409
sg349
I150
sssS'indices'
p1410
(lp1411
I16
aI38
asS'type'
p1412
S'photo'
p1413
sg1370
I612201656327876608
sS'media_url'
p1414
S'http://pbs.twimg.com/media/CH76KbBUMAAY2pa.jpg'
p1415
sasS'hashtags'
p1416
(lp1417
sS'user_mentions'
p1418
(lp1419
sS'trends'
p1420
(lp1421
sS'urls'
p1422
(lp1423
ssS'in_reply_to_screen_name'
p1424
Nsg1393
S'612201697713106944'
p1425
sS'retweet_count'
p1426
I0
sS'in_reply_to_user_id'
p1427
NsS'favorited'
p1428
I00
sS'user'
p1429
(dp1430
S'follow_request_sent'
p1431
NsS'profile_use_background_image'
p1432
I01
sS'default_profile_image'
p1433
I00
sg1370
I1891629559
sS'verified'
p1434
I00
sS'profile_image_url_https'
p1435
S'https://pbs.twimg.com/profile_images/609740973644447744/rWPZGR1K_normal.jpg'
p1436
sS'profile_sidebar_fill_color'
p1437
S'DDEEF6'
p1438
sS'profile_text_color'
p1439
S'333333'
p1440
sS'followers_count'
p1441
I731
sS'profile_sidebar_border_color'
p1442
S'C0DEED'
p1443
sg1393
S'1891629559'
p1444
sS'profile_background_color'
p1445
S'C0DEED'
p1446
sS'listed_count'
p1447
I1
sS'profile_background_image_url_https'
p1448
S'https://abs.twimg.com/images/themes/theme1/bg.png'
p1449
sS'utc_offset'
p1450
I16200
sS'statuses_count'
p1451
I4500
sS'description'
p1452
V\u062a\u0647\u0631\u0627\u0646
p1453
sS'friends_count'
p1454
I411
sS'location'
p1455
S'Islamic Republic of Iran'
p1456
sS'profile_link_color'
p1457
S'0084B4'
p1458
sS'profile_image_url'
p1459
S'http://pbs.twimg.com/profile_images/609740973644447744/rWPZGR1K_normal.jpg'
p1460
sS'following'
p1461
NsS'geo_enabled'
p1462
I01
sS'profile_banner_url'
p1463
S'https://pbs.twimg.com/profile_banners/1891629559/1433691513'
p1464
sS'profile_background_image_url'
p1465
S'http://abs.twimg.com/images/themes/theme1/bg.png'
p1466
sS'name'
p1467
S'mahmood'
p1468
sS'lang'
p1469
S'en'
p1470
sS'profile_background_tile'
p1471
I00
sS'favourites_count'
p1472
I15502
sS'screen_name'
p1473
S'Mah_m_ood'
p1474
sS'notifications'
p1475
Nsg1389
NsS'created_at'
p1476
S'Sat Sep 21 21:54:18 +0000 2013'
p1477
sS'contributors_enabled'
p1478
I00
sS'time_zone'
p1479
S'Tehran'
p1480
sS'protected'
p1481
I00
sS'default_profile'
p1482
I01
sS'is_translator'
p1483
I00
ssS'geo'
p1484
NsS'in_reply_to_user_id_str'
p1485
NsS'possibly_sensitive'
p1486
I00
sg1469
S'fa'
p1487
sg1476
S'Sat Jun 20 10:13:53 +0000 2015'
p1488
sS'filter_level'
p1489
S'low'
p1490
sS'in_reply_to_status_id_str'
p1491
NsS'place'
p1492
(dp1493
S'full_name'
p1494
S'Islamic Republic of Iran'
p1495
sg1389
S'https://api.twitter.com/1.1/geo/id/272596500e51c07a.json'
p1496
sS'country'
p1497
V\u062c\u0645\u0647\u0648\u0631\u06cc \u0627\u0633\u0644\u0627\u0645\u06cc \u0627\u06cc\u0631\u0627\u0646
p1498
sS'place_type'
p1499
S'country'
p1500
sS'bounding_box'
p1501
(dp1502
g1412
S'Polygon'
p1503
sg1375
(lp1504
(lp1505
(lp1506
F44.0324781
aF25.0106719
aa(lp1507
F44.0324781
aF39.7824134
aa(lp1508
F63.3174706
aF39.7824134
aa(lp1509
F63.3174706
aF25.0106719
aaassS'country_code'
p1510
S'IR'
p1511
sS'attributes'
p1512
(dp1513
sg1370
S'272596500e51c07a'
p1514
sg1467
S'Islamic Republic of Iran'
p1515
ssS'extended_entities'
p1516
(dp1517
g1382
(lp1518
(dp1519
g1385
S'http://twitter.com/Mah_m_ood/status/612201697713106944/photo/1'
p1520
sg1387
S'pic.twitter.com/WeVGYYVX0A'
p1521
sg1389
S'http://t.co/WeVGYYVX0A'
p1522
sg1391
S'https://pbs.twimg.com/media/CH76KbBUMAAY2pa.jpg'
p1523
sg1393
S'612201656327876608'
p1524
sg1395
(dp1525
g1397
(dp1526
g346
I340
sg1399
S'fit'
p1527
sg349
I340
ssg1401
(dp1528
g346
I640
sg1399
S'fit'
p1529
sg349
I640
ssg1404
(dp1530
g346
I600
sg1399
S'fit'
p1531
sg349
I600
ssg1407
(dp1532
g346
I150
sg1399
S'crop'
p1533
sg349
I150
sssg1410
(lp1534
I16
aI38
asg1412
S'photo'
p1535
sg1370
I612201656327876608
sg1414
S'http://pbs.twimg.com/media/CH76KbBUMAAY2pa.jpg'
p1536
sa(dp1537
g1385
S'http://twitter.com/Mah_m_ood/status/612201697713106944/photo/1'
p1538
sg1387
S'pic.twitter.com/WeVGYYVX0A'
p1539
sg1389
S'http://t.co/WeVGYYVX0A'
p1540
sg1391
S'https://pbs.twimg.com/media/CH76KlOUAAQuDtx.jpg'
p1541
sg1393
S'612201659066744836'
p1542
sg1395
(dp1543
g1397
(dp1544
g346
I340
sg1399
S'fit'
p1545
sg349
I340
ssg1401
(dp1546
g346
I640
sg1399
S'fit'
p1547
sg349
I640
ssg1404
(dp1548
g346
I600
sg1399
S'fit'
p1549
sg349
I600
ssg1407
(dp1550
g346
I150
sg1399
S'crop'
p1551
sg349
I150
sssg1410
(lp1552
I16
aI38
asg1412
S'photo'
p1553
sg1370
I612201659066744836
sg1414
S'http://pbs.twimg.com/media/CH76KlOUAAQuDtx.jpg'
p1554
sa(dp1555
g1385
S'http://twitter.com/Mah_m_ood/status/612201697713106944/photo/1'
p1556
sg1387
S'pic.twitter.com/WeVGYYVX0A'
p1557
sg1389
S'http://t.co/WeVGYYVX0A'
p1558
sg1391
S'https://pbs.twimg.com/media/CH76LpWUMAAywvF.jpg'
p1559
sg1393
S'612201677353922560'
p1560
sg1395
(dp1561
g1397
(dp1562
g346
I340
sg1399
S'fit'
p1563
sg349
I340
ssg1401
(dp1564
g346
I640
sg1399
S'fit'
p1565
sg349
I640
ssg1404
(dp1566
g346
I600
sg1399
S'fit'
p1567
sg349
I600
ssg1407
(dp1568
g346
I150
sg1399
S'crop'
p1569
sg349
I150
sssg1410
(lp1570
I16
aI38
asg1412
S'photo'
p1571
sg1370
I612201677353922560
sg1414
S'http://pbs.twimg.com/media/CH76LpWUMAAywvF.jpg'
p1572
sa(dp1573
g1385
S'http://twitter.com/Mah_m_ood/status/612201697713106944/photo/1'
p1574
sg1387
S'pic.twitter.com/WeVGYYVX0A'
p1575
sg1389
S'http://t.co/WeVGYYVX0A'
p1576
sg1391
S'https://pbs.twimg.com/media/CH76MnGUEAAM4sX.jpg'
p1577
sg1393
S'612201693929803776'
p1578
sg1395
(dp1579
g1397
(dp1580
g346
I340
sg1399
S'fit'
p1581
sg349
I340
ssg1401
(dp1582
g346
I640
sg1399
S'fit'
p1583
sg349
I640
ssg1404
(dp1584
g346
I600
sg1399
S'fit'
p1585
sg349
I600
ssg1407
(dp1586
g346
I150
sg1399
S'crop'
p1587
sg349
I150
sssg1410
(lp1588
I16
aI38
asg1412
S'photo'
p1589
sg1370
I612201693929803776
sg1414
S'http://pbs.twimg.com/media/CH76MnGUEAAM4sX.jpg'
p1590
sassa(dp1591
S'contributors'
p1592
NsS'truncated'
p1593
I00
sS'text'
p1594
VRT @TheBucktList: I need to go to Dubai \U0001f60d\U0001f64c http://t.co/58yT9txv7r
p1595
sS'in_reply_to_status_id'
p1596
NsS'id'
p1597
I612201702578634752
sS'favorite_count'
p1598
I0
sS'source'
p1599
S'<a href="http://twitter.com/download/iphone" rel="nofollow">Twitter for iPhone</a>'
p1600
sS'retweeted'
p1601
I00
sS'coordinates'
p1602
NsS'timestamp_ms'
p1603
S'1434795234709'
p1604
sS'entities'
p1605
(dp1606
S'symbols'
p1607
(lp1608
sS'media'
p1609
(lp1610
(dp1611
S'source_status_id_str'
p1612
S'583463439189803009'
p1613
sS'expanded_url'
p1614
S'http://twitter.com/AdventurePIaces/status/583463439189803009/photo/1'
p1615
sS'display_url'
p1616
S'pic.twitter.com/58yT9txv7r'
p1617
sS'url'
p1618
S'http://t.co/58yT9txv7r'
p1619
sS'media_url_https'
p1620
S'https://pbs.twimg.com/media/CBjg5EmW4AAAlXz.jpg'
p1621
sS'source_status_id'
p1622
I583463439189803009
sS'id_str'
p1623
S'583463422836269056'
p1624
sS'sizes'
p1625
(dp1626
S'small'
p1627
(dp1628
g346
I340
sS'resize'
p1629
S'fit'
p1630
sg349
I340
ssS'large'
p1631
(dp1632
g346
I500
sg1629
S'fit'
p1633
sg349
I500
ssS'medium'
p1634
(dp1635
g346
I500
sg1629
S'fit'
p1636
sg349
I500
ssS'thumb'
p1637
(dp1638
g346
I150
sg1629
S'crop'
p1639
sg349
I150
sssS'indices'
p1640
(lp1641
I43
aI65
asS'type'
p1642
S'photo'
p1643
sg1597
I583463422836269056
sS'media_url'
p1644
S'http://pbs.twimg.com/media/CBjg5EmW4AAAlXz.jpg'
p1645
sasS'hashtags'
p1646
(lp1647
sS'user_mentions'
p1648
(lp1649
(dp1650
g1597
I488242107
sg1640
(lp1651
I3
aI16
asg1623
S'488242107'
p1652
sS'screen_name'
p1653
S'TheBucktList'
p1654
sS'name'
p1655
S'The Bucket List'
p1656
sasS'trends'
p1657
(lp1658
sS'urls'
p1659
(lp1660
ssS'in_reply_to_screen_name'
p1661
Nsg1623
S'612201702578634752'
p1662
sS'retweet_count'
p1663
I0
sS'in_reply_to_user_id'
p1664
NsS'favorited'
p1665
I00
sS'retweeted_status'
p1666
(dp1667
g1592
Nsg1593
I00
sg1594
VI need to go to Dubai \U0001f60d\U0001f64c http://t.co/58yT9txv7r
p1668
sg1596
Nsg1597
I611770782721646592
sg1598
I1984
sg1599
S'<a href="http://twitter.com/download/iphone" rel="nofollow">Twitter for iPhone</a>'
p1669
sg1601
I00
sg1602
Nsg1605
(dp1670
g1607
(lp1671
sg1609
(lp1672
(dp1673
g1612
S'583463439189803009'
p1674
sg1614
S'http://twitter.com/AdventurePIaces/status/583463439189803009/photo/1'
p1675
sg1616
S'pic.twitter.com/58yT9txv7r'
p1676
sg1618
S'http://t.co/58yT9txv7r'
p1677
sg1620
S'https://pbs.twimg.com/media/CBjg5EmW4AAAlXz.jpg'
p1678
sg1622
I583463439189803009
sg1623
S'583463422836269056'
p1679
sg1625
(dp1680
g1627
(dp1681
g346
I340
sg1629
S'fit'
p1682
sg349
I340
ssg1631
(dp1683
g346
I500
sg1629
S'fit'
p1684
sg349
I500
ssg1634
(dp1685
g346
I500
sg1629
S'fit'
p1686
sg349
I500
ssg1637
(dp1687
g346
I150
sg1629
S'crop'
p1688
sg349
I150
sssg1640
(lp1689
I25
aI47
asg1642
S'photo'
p1690
sg1597
I583463422836269056
sg1644
S'http://pbs.twimg.com/media/CBjg5EmW4AAAlXz.jpg'
p1691
sasg1646
(lp1692
sg1648
(lp1693
sg1657
(lp1694
sg1659
(lp1695
ssg1661
Nsg1623
S'611770782721646592'
p1696
sg1663
I1339
sg1664
Nsg1665
I00
sS'user'
p1697
(dp1698
S'follow_request_sent'
p1699
NsS'profile_use_background_image'
p1700
I00
sS'default_profile_image'
p1701
I00
sg1597
I488242107
sS'verified'
p1702
I00
sS'profile_image_url_https'
p1703
S'https://pbs.twimg.com/profile_images/497058486287495169/H4MYutsm_normal.jpeg'
p1704
sS'profile_sidebar_fill_color'
p1705
S'DDEEF6'
p1706
sS'profile_text_color'
p1707
S'333333'
p1708
sS'followers_count'
p1709
I1376510
sS'profile_sidebar_border_color'
p1710
S'C0DEED'
p1711
sg1623
S'488242107'
p1712
sS'profile_background_color'
p1713
S'EAF0F2'
p1714
sS'listed_count'
p1715
I1253
sS'profile_background_image_url_https'
p1716
S'https://abs.twimg.com/images/themes/theme1/bg.png'
p1717
sS'utc_offset'
p1718
I-25200
sS'statuses_count'
p1719
I4733
sS'description'
p1720
V\u262e Live everyday like its your last \u262f Contact: thebucktlist@outlook.com
p1721
sS'friends_count'
p1722
I90172
sS'location'
p1723
S'Arizona'
p1724
sS'profile_link_color'
p1725
S'376EBF'
p1726
sS'profile_image_url'
p1727
S'http://pbs.twimg.com/profile_images/497058486287495169/H4MYutsm_normal.jpeg'
p1728
sS'following'
p1729
NsS'geo_enabled'
p1730
I00
sS'profile_banner_url'
p1731
S'https://pbs.twimg.com/profile_banners/488242107/1417378403'
p1732
sS'profile_background_image_url'
p1733
S'http://abs.twimg.com/images/themes/theme1/bg.png'
p1734
sg1655
S'The Bucket List'
p1735
sS'lang'
p1736
S'en'
p1737
sS'profile_background_tile'
p1738
I00
sS'favourites_count'
p1739
I8815
sg1653
S'TheBucktList'
p1740
sS'notifications'
p1741
Nsg1618
NsS'created_at'
p1742
S'Fri Feb 10 07:27:38 +0000 2012'
p1743
sS'contributors_enabled'
p1744
I00
sS'time_zone'
p1745
S'Arizona'
p1746
sS'protected'
p1747
I00
sS'default_profile'
p1748
I00
sS'is_translator'
p1749
I00
ssS'geo'
p1750
NsS'in_reply_to_user_id_str'
p1751
NsS'possibly_sensitive'
p1752
I00
sg1736
S'en'
p1753
sg1742
S'Fri Jun 19 05:41:35 +0000 2015'
p1754
sS'filter_level'
p1755
S'low'
p1756
sS'in_reply_to_status_id_str'
p1757
NsS'place'
p1758
NsS'extended_entities'
p1759
(dp1760
g1609
(lp1761
(dp1762
g1612
S'583463439189803009'
p1763
sg1614
S'http://twitter.com/AdventurePIaces/status/583463439189803009/photo/1'
p1764
sg1616
S'pic.twitter.com/58yT9txv7r'
p1765
sg1618
S'http://t.co/58yT9txv7r'
p1766
sg1620
S'https://pbs.twimg.com/media/CBjg5EmW4AAAlXz.jpg'
p1767
sg1622
I583463439189803009
sg1623
S'583463422836269056'
p1768
sg1625
(dp1769
g1627
(dp1770
g346
I340
sg1629
S'fit'
p1771
sg349
I340
ssg1631
(dp1772
g346
I500
sg1629
S'fit'
p1773
sg349
I500
ssg1634
(dp1774
g346
I500
sg1629
S'fit'
p1775
sg349
I500
ssg1637
(dp1776
g346
I150
sg1629
S'crop'
p1777
sg349
I150
sssg1640
(lp1778
I25
aI47
asg1642
S'photo'
p1779
sg1597
I583463422836269056
sg1644
S'http://pbs.twimg.com/media/CBjg5EmW4AAAlXz.jpg'
p1780
sa(dp1781
g1612
S'583463439189803009'
p1782
sg1614
S'http://twitter.com/AdventurePIaces/status/583463439189803009/photo/1'
p1783
sg1616
S'pic.twitter.com/58yT9txv7r'
p1784
sg1618
S'http://t.co/58yT9txv7r'
p1785
sg1620
S'https://pbs.twimg.com/media/CBjg5EmXIAIShKl.jpg'
p1786
sg1622
I583463439189803009
sg1623
S'583463422836285442'
p1787
sg1625
(dp1788
g1631
(dp1789
g346
I327
sg1629
S'fit'
p1790
sg349
I500
ssg1627
(dp1791
g346
I222
sg1629
S'fit'
p1792
sg349
I340
ssg1634
(dp1793
g346
I327
sg1629
S'fit'
p1794
sg349
I500
ssg1637
(dp1795
g346
I150
sg1629
S'crop'
p1796
sg349
I150
sssg1640
(lp1797
I25
aI47
asg1642
S'photo'
p1798
sg1597
I583463422836285442
sg1644
S'http://pbs.twimg.com/media/CBjg5EmXIAIShKl.jpg'
p1799
sa(dp1800
g1612
S'583463439189803009'
p1801
sg1614
S'http://twitter.com/AdventurePIaces/status/583463439189803009/photo/1'
p1802
sg1616
S'pic.twitter.com/58yT9txv7r'
p1803
sg1618
S'http://t.co/58yT9txv7r'
p1804
sg1620
S'https://pbs.twimg.com/media/CBjg5FrWEAAALXt.jpg'
p1805
sg1622
I583463439189803009
sg1623
S'583463423125622784'
p1806
sg1625
(dp1807
g1627
(dp1808
g346
I331
sg1629
S'fit'
p1809
sg349
I340
ssg1631
(dp1810
g346
I487
sg1629
S'fit'
p1811
sg349
I500
ssg1634
(dp1812
g346
I487
sg1629
S'fit'
p1813
sg349
I500
ssg1637
(dp1814
g346
I150
sg1629
S'crop'
p1815
sg349
I150
sssg1640
(lp1816
I25
aI47
asg1642
S'photo'
p1817
sg1597
I583463423125622784
sg1644
S'http://pbs.twimg.com/media/CBjg5FrWEAAALXt.jpg'
p1818
sa(dp1819
g1612
S'583463439189803009'
p1820
sg1614
S'http://twitter.com/AdventurePIaces/status/583463439189803009/photo/1'
p1821
sg1616
S'pic.twitter.com/58yT9txv7r'
p1822
sg1618
S'http://t.co/58yT9txv7r'
p1823
sg1620
S'https://pbs.twimg.com/media/CBjg5FqW0AAprsA.jpg'
p1824
sg1622
I583463439189803009
sg1623
S'583463423121477632'
p1825
sg1625
(dp1826
g1627
(dp1827
g346
I190
sg1629
S'fit'
p1828
sg349
I340
ssg1631
(dp1829
g346
I280
sg1629
S'fit'
p1830
sg349
I499
ssg1634
(dp1831
g346
I280
sg1629
S'fit'
p1832
sg349
I499
ssg1637
(dp1833
g346
I150
sg1629
S'crop'
p1834
sg349
I150
sssg1640
(lp1835
I25
aI47
asg1642
S'photo'
p1836
sg1597
I583463423121477632
sg1644
S'http://pbs.twimg.com/media/CBjg5FqW0AAprsA.jpg'
p1837
sasssg1697
(dp1838
g1699
Nsg1700
I01
sg1701
I00
sg1597
I3331596401
sg1702
I00
sg1703
S'https://pbs.twimg.com/profile_images/611239815670067200/7de6-VNQ_normal.jpg'
p1839
sg1705
S'DDEEF6'
p1840
sg1707
S'333333'
p1841
sg1709
I106
sg1710
S'C0DEED'
p1842
sg1623
S'3331596401'
p1843
sg1713
S'C0DEED'
p1844
sg1715
I1
sg1716
S'https://abs.twimg.com/images/themes/theme1/bg.png'
p1845
sg1718
Nsg1719
I111
sg1720
Nsg1722
I147
sg1723
g297
sg1725
S'0084B4'
p1846
sg1727
S'http://pbs.twimg.com/profile_images/611239815670067200/7de6-VNQ_normal.jpg'
p1847
sg1729
Nsg1730
I00
sg1731
S'https://pbs.twimg.com/profile_banners/3331596401/1434567762'
p1848
sg1733
S'http://abs.twimg.com/images/themes/theme1/bg.png'
p1849
sg1655
S'Best Five'
p1850
sg1736
S'de'
p1851
sg1738
I00
sg1739
I2
sg1653
S'BEST5Official'
p1852
sg1741
Nsg1618
S'http://youtu.be/S3WToPw3iSc'
p1853
sg1742
S'Wed Jun 17 18:25:37 +0000 2015'
p1854
sg1744
I00
sg1745
Nsg1747
I00
sg1748
I01
sg1749
I00
ssg1750
Nsg1751
Nsg1752
I00
sg1736
S'en'
p1855
sg1742
S'Sat Jun 20 10:13:54 +0000 2015'
p1856
sg1755
S'low'
p1857
sg1757
Nsg1758
Nsg1759
(dp1858
g1609
(lp1859
(dp1860
g1612
S'583463439189803009'
p1861
sg1614
S'http://twitter.com/AdventurePIaces/status/583463439189803009/photo/1'
p1862
sg1616
S'pic.twitter.com/58yT9txv7r'
p1863
sg1618
S'http://t.co/58yT9txv7r'
p1864
sg1620
S'https://pbs.twimg.com/media/CBjg5EmW4AAAlXz.jpg'
p1865
sg1622
I583463439189803009
sg1623
S'583463422836269056'
p1866
sg1625
(dp1867
g1627
(dp1868
g346
I340
sg1629
S'fit'
p1869
sg349
I340
ssg1631
(dp1870
g346
I500
sg1629
S'fit'
p1871
sg349
I500
ssg1634
(dp1872
g346
I500
sg1629
S'fit'
p1873
sg349
I500
ssg1637
(dp1874
g346
I150
sg1629
S'crop'
p1875
sg349
I150
sssg1640
(lp1876
I43
aI65
asg1642
S'photo'
p1877
sg1597
I583463422836269056
sg1644
S'http://pbs.twimg.com/media/CBjg5EmW4AAAlXz.jpg'
p1878
sa(dp1879
g1612
S'583463439189803009'
p1880
sg1614
S'http://twitter.com/AdventurePIaces/status/583463439189803009/photo/1'
p1881
sg1616
S'pic.twitter.com/58yT9txv7r'
p1882
sg1618
S'http://t.co/58yT9txv7r'
p1883
sg1620
S'https://pbs.twimg.com/media/CBjg5EmXIAIShKl.jpg'
p1884
sg1622
I583463439189803009
sg1623
S'583463422836285442'
p1885
sg1625
(dp1886
g1631
(dp1887
g346
I327
sg1629
S'fit'
p1888
sg349
I500
ssg1627
(dp1889
g346
I222
sg1629
S'fit'
p1890
sg349
I340
ssg1634
(dp1891
g346
I327
sg1629
S'fit'
p1892
sg349
I500
ssg1637
(dp1893
g346
I150
sg1629
S'crop'
p1894
sg349
I150
sssg1640
(lp1895
I43
aI65
asg1642
S'photo'
p1896
sg1597
I583463422836285442
sg1644
S'http://pbs.twimg.com/media/CBjg5EmXIAIShKl.jpg'
p1897
sa(dp1898
g1612
S'583463439189803009'
p1899
sg1614
S'http://twitter.com/AdventurePIaces/status/583463439189803009/photo/1'
p1900
sg1616
S'pic.twitter.com/58yT9txv7r'
p1901
sg1618
S'http://t.co/58yT9txv7r'
p1902
sg1620
S'https://pbs.twimg.com/media/CBjg5FrWEAAALXt.jpg'
p1903
sg1622
I583463439189803009
sg1623
S'583463423125622784'
p1904
sg1625
(dp1905
g1627
(dp1906
g346
I331
sg1629
S'fit'
p1907
sg349
I340
ssg1631
(dp1908
g346
I487
sg1629
S'fit'
p1909
sg349
I500
ssg1634
(dp1910
g346
I487
sg1629
S'fit'
p1911
sg349
I500
ssg1637
(dp1912
g346
I150
sg1629
S'crop'
p1913
sg349
I150
sssg1640
(lp1914
I43
aI65
asg1642
S'photo'
p1915
sg1597
I583463423125622784
sg1644
S'http://pbs.twimg.com/media/CBjg5FrWEAAALXt.jpg'
p1916
sa(dp1917
g1612
S'583463439189803009'
p1918
sg1614
S'http://twitter.com/AdventurePIaces/status/583463439189803009/photo/1'
p1919
sg1616
S'pic.twitter.com/58yT9txv7r'
p1920
sg1618
S'http://t.co/58yT9txv7r'
p1921
sg1620
S'https://pbs.twimg.com/media/CBjg5FqW0AAprsA.jpg'
p1922
sg1622
I583463439189803009
sg1623
S'583463423121477632'
p1923
sg1625
(dp1924
g1627
(dp1925
g346
I190
sg1629
S'fit'
p1926
sg349
I340
ssg1631
(dp1927
g346
I280
sg1629
S'fit'
p1928
sg349
I499
ssg1634
(dp1929
g346
I280
sg1629
S'fit'
p1930
sg349
I499
ssg1637
(dp1931
g346
I150
sg1629
S'crop'
p1932
sg349
I150
sssg1640
(lp1933
I43
aI65
asg1642
S'photo'
p1934
sg1597
I583463423121477632
sg1644
S'http://pbs.twimg.com/media/CBjg5FqW0AAprsA.jpg'
p1935
sassa(dp1936
S'contributors'
p1937
NsS'truncated'
p1938
I00
sS'text'
p1939
VProjet du w-e : peindre "Welcome to Abu Dhabi" en trs grandes lettres sur un toit du ct de Zaventem. https://t.co/Cig6rYPjud
p1940
sS'in_reply_to_status_id'
p1941
NsS'id'
p1942
I612201703811776512
sS'favorite_count'
p1943
I0
sS'source'
p1944
S'<a href="http://twitter.com" rel="nofollow">Twitter Web Client</a>'
p1945
sS'quoted_status_id'
p1946
I612199601823727617
sS'retweeted'
p1947
I00
sS'coordinates'
p1948
NsS'timestamp_ms'
p1949
S'1434795235003'
p1950
sS'quoted_status'
p1951
(dp1952
g1937
Nsg1938
I00
sg1939
VErreur d'aroport: commentfaire flipper les passagers des avions atterrissant  Milwaukee http://t.co/SkXkHyUwtc via @MinuteBuzz
p1953
sg1941
Nsg1942
I612199601823727617
sg1943
I0
sg1944
S'<a href="http://www.sharedby.co" rel="nofollow">SharedBy</a>'
p1954
sg1947
I00
sg1948
NsS'entities'
p1955
(dp1956
S'user_mentions'
p1957
(lp1958
(dp1959
g1942
I106697395
sS'indices'
p1960
(lp1961
I117
aI128
asS'id_str'
p1962
S'106697395'
p1963
sS'screen_name'
p1964
S'minutebuzz'
p1965
sS'name'
p1966
S'MinuteBuzz'
p1967
sasS'symbols'
p1968
(lp1969
sS'trends'
p1970
(lp1971
sS'hashtags'
p1972
(lp1973
sS'urls'
p1974
(lp1975
(dp1976
S'url'
p1977
S'http://t.co/SkXkHyUwtc'
p1978
sg1960
(lp1979
I90
aI112
asS'expanded_url'
p1980
S'http://shrd.by/OZbhLW'
p1981
sS'display_url'
p1982
S'shrd.by/OZbhLW'
p1983
sassS'in_reply_to_screen_name'
p1984
Nsg1962
S'612199601823727617'
p1985
sS'retweet_count'
p1986
I0
sS'in_reply_to_user_id'
p1987
NsS'favorited'
p1988
I00
sS'user'
p1989
(dp1990
S'follow_request_sent'
p1991
NsS'profile_use_background_image'
p1992
I01
sS'default_profile_image'
p1993
I00
sg1942
I39592795
sS'verified'
p1994
I00
sS'profile_image_url_https'
p1995
S'https://pbs.twimg.com/profile_images/466672784928567296/0xmH9wla_normal.jpeg'
p1996
sS'profile_sidebar_fill_color'
p1997
S'A0C5C7'
p1998
sS'profile_text_color'
p1999
S'333333'
p2000
sS'followers_count'
p2001
I9970
sS'profile_sidebar_border_color'
p2002
S'86A4A6'
p2003
sg1962
S'39592795'
p2004
sS'profile_background_color'
p2005
S'709397'
p2006
sS'listed_count'
p2007
I314
sS'profile_background_image_url_https'
p2008
S'https://pbs.twimg.com/profile_background_images/99314467/10-10-2009_016.JPG'
p2009
sS'utc_offset'
p2010
I7200
sS'statuses_count'
p2011
I39570
sS'description'
p2012
VPassionn par la mdiapolitique. Quand on aime le journalisme, les mdias, le Net, l\u2019on passe de l\u2019un  l\u2019autre, accro  la com' comme d\u2019autres au shopping\u2026
p2013
sS'friends_count'
p2014
I5124
sS'location'
p2015
S'Brabant Wallon, Wallonie'
p2016
sS'profile_link_color'
p2017
S'FF3300'
p2018
sS'profile_image_url'
p2019
S'http://pbs.twimg.com/profile_images/466672784928567296/0xmH9wla_normal.jpeg'
p2020
sS'following'
p2021
NsS'geo_enabled'
p2022
I01
sS'profile_banner_url'
p2023
S'https://pbs.twimg.com/profile_banners/39592795/1400098504'
p2024
sS'profile_background_image_url'
p2025
S'http://pbs.twimg.com/profile_background_images/99314467/10-10-2009_016.JPG'
p2026
sg1966
S'michel henrion'
p2027
sS'lang'
p2028
S'fr'
p2029
sS'profile_background_tile'
p2030
I00
sS'favourites_count'
p2031
I827
sg1964
S'michelhenrion'
p2032
sS'notifications'
p2033
Nsg1977
S'http://www.demainonrasegratis.be'
p2034
sS'created_at'
p2035
S'Tue May 12 20:51:48 +0000 2009'
p2036
sS'contributors_enabled'
p2037
I00
sS'time_zone'
p2038
S'Paris'
p2039
sS'protected'
p2040
I00
sS'default_profile'
p2041
I00
sS'is_translator'
p2042
I00
ssS'geo'
p2043
NsS'in_reply_to_user_id_str'
p2044
NsS'possibly_sensitive'
p2045
I00
sg2028
S'fr'
p2046
sg2035
S'Sat Jun 20 10:05:33 +0000 2015'
p2047
sS'filter_level'
p2048
S'low'
p2049
sS'in_reply_to_status_id_str'
p2050
NsS'place'
p2051
Nssg1955
(dp2052
g1957
(lp2053
sg1968
(lp2054
sg1970
(lp2055
sg1972
(lp2056
sg1974
(lp2057
(dp2058
g1977
S'https://t.co/Cig6rYPjud'
p2059
sg1960
(lp2060
I104
aI127
asg1980
S'https://twitter.com/michelhenrion/status/612199601823727617'
p2061
sg1982
Vtwitter.com/michelhenrion/\u2026
p2062
sassg1984
Nsg1962
S'612201703811776512'
p2063
sg1986
I0
sg1987
Nsg1988
I00
sg1989
(dp2064
g1991
Nsg1992
I01
sg1993
I00
sg1942
I299716390
sg1994
I00
sg1995
S'https://pbs.twimg.com/profile_images/2699437374/88c0558778b918fcd6b9c01b550799a9_normal.png'
p2065
sg1997
S'DDEEF6'
p2066
sg1999
S'333333'
p2067
sg2001
I1117
sg2002
S'FFFFFF'
p2068
sg1962
S'299716390'
p2069
sg2005
S'215E70'
p2070
sg2007
I49
sg2008
S'https://pbs.twimg.com/profile_background_images/664518905/1cbab8dc22194b7e3e426174149880d6.gif'
p2071
sg2010
I7200
sg2011
I74532
sg2012
VNgociant en vains. Parfois surnomm masse critique, je rclame l'inscription de l'antiphrase au patrimoine mondial UNESCO.
p2072
sg2014
I496
sg2015
S'Belgium'
p2073
sg2017
S'000000'
p2074
sg2019
S'http://pbs.twimg.com/profile_images/2699437374/88c0558778b918fcd6b9c01b550799a9_normal.png'
p2075
sg2021
Nsg2022
I01
sg2023
S'https://pbs.twimg.com/profile_banners/299716390/1349815984'
p2076
sg2025
S'http://pbs.twimg.com/profile_background_images/664518905/1cbab8dc22194b7e3e426174149880d6.gif'
p2077
sg1966
S'Jacques Briet'
p2078
sg2028
S'fr'
p2079
sg2030
I00
sg2031
I6347
sg1964
S'JacquesBriet'
p2080
sg2033
Nsg1977
Nsg2035
S'Mon May 16 15:34:03 +0000 2011'
p2081
sg2037
I00
sg2038
S'Paris'
p2082
sg2040
I00
sg2041
I00
sg2042
I00
ssg2043
Nsg2044
Nsg2045
I00
sg2028
S'fr'
p2083
sg2035
S'Sat Jun 20 10:13:55 +0000 2015'
p2084
sS'quoted_status_id_str'
p2085
S'612199601823727617'
p2086
sg2048
S'low'
p2087
sg2050
Nsg2051
Nsa.